                              1 ;--------------------------------------------------------
                              2 ; File Created by SDCC : free open source ANSI-C Compiler
                              3 ; Version 3.8.0 #10562 (Linux)
                              4 ;--------------------------------------------------------
                              5 	.module ssd1306
                              6 	.optsdcc -mz80
                              7 	
                              8 ;--------------------------------------------------------
                              9 ; Public variables in this module
                             10 ;--------------------------------------------------------
                             11 	.globl _SSD1306_FBPIXCLR
                             12 	.globl _SSD1306_FBPIXSET
                             13 	.globl _i2c_write_buf
                             14 	.globl _mini_strlen
                             15 	.globl _mini_memset
                             16 	.globl _ssd1306_fb
                             17 	.globl _ssd1306_fbdata
                             18 	.globl _ssd1306_i2c_addr
                             19 	.globl _fontData
                             20 	.globl _ssd1306_initialize
                             21 	.globl _ssd1306_addr
                             22 	.globl _ssd1306_clear
                             23 	.globl _ssd1306_update
                             24 	.globl _ssd1306_setPixel
                             25 	.globl _ssd1306_write
                             26 	.globl _ssd1306_abs
                             27 	.globl _ssd1306_line
                             28 	.globl _ssd1306_box
                             29 ;--------------------------------------------------------
                             30 ; special function registers
                             31 ;--------------------------------------------------------
                             32 ;--------------------------------------------------------
                             33 ; ram data
                             34 ;--------------------------------------------------------
                             35 	.area _DATA
   0000                      36 _ssd1306_i2c_addr::
   0000                      37 	.ds 1
   0001                      38 _ssd1306_fbdata::
   0001                      39 	.ds 1025
   0402                      40 _ssd1306_fb::
   0402                      41 	.ds 2
                             42 ;--------------------------------------------------------
                             43 ; ram data
                             44 ;--------------------------------------------------------
                             45 	.area _INITIALIZED
                             46 ;--------------------------------------------------------
                             47 ; absolute external ram data
                             48 ;--------------------------------------------------------
                             49 	.area _DABS (ABS)
                             50 ;--------------------------------------------------------
                             51 ; global & static initialisations
                             52 ;--------------------------------------------------------
                             53 	.area _HOME
                             54 	.area _GSINIT
                             55 	.area _GSFINAL
                             56 	.area _GSINIT
                             57 ;--------------------------------------------------------
                             58 ; Home
                             59 ;--------------------------------------------------------
                             60 	.area _HOME
                             61 	.area _HOME
                             62 ;--------------------------------------------------------
                             63 ; code
                             64 ;--------------------------------------------------------
                             65 	.area _CODE
                             66 ;ssd1306/ssd1306.c:142: void ssd1306_initialize(uint8_t address)
                             67 ;	---------------------------------
                             68 ; Function ssd1306_initialize
                             69 ; ---------------------------------
   0000                      70 _ssd1306_initialize::
   0000 CDr00r00      [17]   71 	call	___sdcc_enter_ix
   0003 21 E6 FF      [10]   72 	ld	hl, #-26
   0006 39            [11]   73 	add	hl, sp
   0007 F9            [ 6]   74 	ld	sp, hl
                             75 ;ssd1306/ssd1306.c:144: const uint8_t command[] = {
   0008 21 00 00      [10]   76 	ld	hl, #0x0000
   000B 39            [11]   77 	add	hl, sp
   000C EB            [ 4]   78 	ex	de, hl
   000D AF            [ 4]   79 	xor	a, a
   000E 12            [ 7]   80 	ld	(de), a
   000F 6B            [ 4]   81 	ld	l, e
   0010 62            [ 4]   82 	ld	h, d
   0011 23            [ 6]   83 	inc	hl
   0012 36 AE         [10]   84 	ld	(hl), #0xae
   0014 6B            [ 4]   85 	ld	l, e
   0015 62            [ 4]   86 	ld	h, d
   0016 23            [ 6]   87 	inc	hl
   0017 23            [ 6]   88 	inc	hl
   0018 36 D5         [10]   89 	ld	(hl), #0xd5
   001A 6B            [ 4]   90 	ld	l, e
   001B 62            [ 4]   91 	ld	h, d
   001C 23            [ 6]   92 	inc	hl
   001D 23            [ 6]   93 	inc	hl
   001E 23            [ 6]   94 	inc	hl
   001F 36 80         [10]   95 	ld	(hl), #0x80
   0021 21 04 00      [10]   96 	ld	hl, #0x0004
   0024 19            [11]   97 	add	hl, de
   0025 36 A8         [10]   98 	ld	(hl), #0xa8
   0027 21 05 00      [10]   99 	ld	hl, #0x0005
   002A 19            [11]  100 	add	hl, de
   002B 36 3F         [10]  101 	ld	(hl), #0x3f
   002D 21 06 00      [10]  102 	ld	hl, #0x0006
   0030 19            [11]  103 	add	hl, de
   0031 36 D3         [10]  104 	ld	(hl), #0xd3
   0033 21 07 00      [10]  105 	ld	hl, #0x0007
   0036 19            [11]  106 	add	hl, de
   0037 36 00         [10]  107 	ld	(hl), #0x00
   0039 21 08 00      [10]  108 	ld	hl, #0x0008
   003C 19            [11]  109 	add	hl, de
   003D 36 40         [10]  110 	ld	(hl), #0x40
   003F 21 09 00      [10]  111 	ld	hl, #0x0009
   0042 19            [11]  112 	add	hl, de
   0043 36 8D         [10]  113 	ld	(hl), #0x8d
   0045 21 0A 00      [10]  114 	ld	hl, #0x000a
   0048 19            [11]  115 	add	hl, de
   0049 36 14         [10]  116 	ld	(hl), #0x14
   004B 21 0B 00      [10]  117 	ld	hl, #0x000b
   004E 19            [11]  118 	add	hl, de
   004F 36 20         [10]  119 	ld	(hl), #0x20
   0051 21 0C 00      [10]  120 	ld	hl, #0x000c
   0054 19            [11]  121 	add	hl, de
   0055 36 00         [10]  122 	ld	(hl), #0x00
   0057 21 0D 00      [10]  123 	ld	hl, #0x000d
   005A 19            [11]  124 	add	hl, de
   005B 36 A1         [10]  125 	ld	(hl), #0xa1
   005D 21 0E 00      [10]  126 	ld	hl, #0x000e
   0060 19            [11]  127 	add	hl, de
   0061 36 C8         [10]  128 	ld	(hl), #0xc8
   0063 21 0F 00      [10]  129 	ld	hl, #0x000f
   0066 19            [11]  130 	add	hl, de
   0067 36 DA         [10]  131 	ld	(hl), #0xda
   0069 21 10 00      [10]  132 	ld	hl, #0x0010
   006C 19            [11]  133 	add	hl, de
   006D 36 12         [10]  134 	ld	(hl), #0x12
   006F 21 11 00      [10]  135 	ld	hl, #0x0011
   0072 19            [11]  136 	add	hl, de
   0073 36 81         [10]  137 	ld	(hl), #0x81
   0075 21 12 00      [10]  138 	ld	hl, #0x0012
   0078 19            [11]  139 	add	hl, de
   0079 36 CF         [10]  140 	ld	(hl), #0xcf
   007B 21 13 00      [10]  141 	ld	hl, #0x0013
   007E 19            [11]  142 	add	hl, de
   007F 36 D9         [10]  143 	ld	(hl), #0xd9
   0081 21 14 00      [10]  144 	ld	hl, #0x0014
   0084 19            [11]  145 	add	hl, de
   0085 36 F1         [10]  146 	ld	(hl), #0xf1
   0087 21 15 00      [10]  147 	ld	hl, #0x0015
   008A 19            [11]  148 	add	hl, de
   008B 36 DB         [10]  149 	ld	(hl), #0xdb
   008D 21 16 00      [10]  150 	ld	hl, #0x0016
   0090 19            [11]  151 	add	hl, de
   0091 36 40         [10]  152 	ld	(hl), #0x40
   0093 21 17 00      [10]  153 	ld	hl, #0x0017
   0096 19            [11]  154 	add	hl, de
   0097 36 A4         [10]  155 	ld	(hl), #0xa4
   0099 21 18 00      [10]  156 	ld	hl, #0x0018
   009C 19            [11]  157 	add	hl, de
   009D 36 A6         [10]  158 	ld	(hl), #0xa6
   009F 21 19 00      [10]  159 	ld	hl, #0x0019
   00A2 19            [11]  160 	add	hl, de
   00A3 36 AF         [10]  161 	ld	(hl), #0xaf
                            162 ;ssd1306/ssd1306.c:173: ssd1306_i2c_addr = address;
   00A5 DD 7E 04      [19]  163 	ld	a, 4 (ix)
   00A8 32r00r00      [13]  164 	ld	(#_ssd1306_i2c_addr + 0),a
                            165 ;ssd1306/ssd1306.c:176: ssd1306_fbdata[0] = SSD1306_DATA_MODE;
   00AB 21r01r00      [10]  166 	ld	hl, #_ssd1306_fbdata+0
   00AE 36 40         [10]  167 	ld	(hl), #0x40
                            168 ;ssd1306/ssd1306.c:177: ssd1306_fb = &(ssd1306_fbdata[1]);
   00B0 23            [ 6]  169 	inc	hl
   00B1 22r02r04      [16]  170 	ld	(_ssd1306_fb), hl
                            171 ;ssd1306/ssd1306.c:180: i2c_write_buf(ssd1306_i2c_addr, command, sizeof(command) );
   00B4 21 1A 00      [10]  172 	ld	hl, #0x001a
   00B7 E5            [11]  173 	push	hl
   00B8 D5            [11]  174 	push	de
   00B9 3Ar00r00      [13]  175 	ld	a, (_ssd1306_i2c_addr)
   00BC F5            [11]  176 	push	af
   00BD 33            [ 6]  177 	inc	sp
   00BE CDr00r00      [17]  178 	call	_i2c_write_buf
                            179 ;ssd1306/ssd1306.c:181: }
   00C1 DD F9         [10]  180 	ld	sp,ix
   00C3 DD E1         [14]  181 	pop	ix
   00C5 C9            [10]  182 	ret
   00C6                     183 _fontData:
   00C6 00                  184 	.db #0x00	; 0
   00C7 00                  185 	.db #0x00	; 0
   00C8 00                  186 	.db #0x00	; 0
   00C9 00                  187 	.db #0x00	; 0
   00CA 00                  188 	.db #0x00	; 0
   00CB 00                  189 	.db #0x00	; 0
   00CC 00                  190 	.db #0x00	; 0
   00CD 00                  191 	.db #0x00	; 0
   00CE 00                  192 	.db #0x00	; 0
   00CF 00                  193 	.db #0x00	; 0
   00D0 5F                  194 	.db #0x5f	; 95
   00D1 00                  195 	.db #0x00	; 0
   00D2 00                  196 	.db #0x00	; 0
   00D3 00                  197 	.db #0x00	; 0
   00D4 00                  198 	.db #0x00	; 0
   00D5 00                  199 	.db #0x00	; 0
   00D6 00                  200 	.db #0x00	; 0
   00D7 00                  201 	.db #0x00	; 0
   00D8 07                  202 	.db #0x07	; 7
   00D9 00                  203 	.db #0x00	; 0
   00DA 07                  204 	.db #0x07	; 7
   00DB 00                  205 	.db #0x00	; 0
   00DC 00                  206 	.db #0x00	; 0
   00DD 00                  207 	.db #0x00	; 0
   00DE 00                  208 	.db #0x00	; 0
   00DF 14                  209 	.db #0x14	; 20
   00E0 7F                  210 	.db #0x7f	; 127
   00E1 14                  211 	.db #0x14	; 20
   00E2 7F                  212 	.db #0x7f	; 127
   00E3 14                  213 	.db #0x14	; 20
   00E4 00                  214 	.db #0x00	; 0
   00E5 00                  215 	.db #0x00	; 0
   00E6 00                  216 	.db #0x00	; 0
   00E7 24                  217 	.db #0x24	; 36
   00E8 2A                  218 	.db #0x2a	; 42
   00E9 7F                  219 	.db #0x7f	; 127
   00EA 2A                  220 	.db #0x2a	; 42
   00EB 12                  221 	.db #0x12	; 18
   00EC 00                  222 	.db #0x00	; 0
   00ED 00                  223 	.db #0x00	; 0
   00EE 00                  224 	.db #0x00	; 0
   00EF 23                  225 	.db #0x23	; 35
   00F0 13                  226 	.db #0x13	; 19
   00F1 08                  227 	.db #0x08	; 8
   00F2 64                  228 	.db #0x64	; 100	'd'
   00F3 62                  229 	.db #0x62	; 98	'b'
   00F4 00                  230 	.db #0x00	; 0
   00F5 00                  231 	.db #0x00	; 0
   00F6 00                  232 	.db #0x00	; 0
   00F7 36                  233 	.db #0x36	; 54	'6'
   00F8 49                  234 	.db #0x49	; 73	'I'
   00F9 55                  235 	.db #0x55	; 85	'U'
   00FA 22                  236 	.db #0x22	; 34
   00FB 50                  237 	.db #0x50	; 80	'P'
   00FC 00                  238 	.db #0x00	; 0
   00FD 00                  239 	.db #0x00	; 0
   00FE 00                  240 	.db #0x00	; 0
   00FF 00                  241 	.db #0x00	; 0
   0100 05                  242 	.db #0x05	; 5
   0101 03                  243 	.db #0x03	; 3
   0102 00                  244 	.db #0x00	; 0
   0103 00                  245 	.db #0x00	; 0
   0104 00                  246 	.db #0x00	; 0
   0105 00                  247 	.db #0x00	; 0
   0106 00                  248 	.db #0x00	; 0
   0107 1C                  249 	.db #0x1c	; 28
   0108 22                  250 	.db #0x22	; 34
   0109 41                  251 	.db #0x41	; 65	'A'
   010A 00                  252 	.db #0x00	; 0
   010B 00                  253 	.db #0x00	; 0
   010C 00                  254 	.db #0x00	; 0
   010D 00                  255 	.db #0x00	; 0
   010E 00                  256 	.db #0x00	; 0
   010F 41                  257 	.db #0x41	; 65	'A'
   0110 22                  258 	.db #0x22	; 34
   0111 1C                  259 	.db #0x1c	; 28
   0112 00                  260 	.db #0x00	; 0
   0113 00                  261 	.db #0x00	; 0
   0114 00                  262 	.db #0x00	; 0
   0115 00                  263 	.db #0x00	; 0
   0116 00                  264 	.db #0x00	; 0
   0117 08                  265 	.db #0x08	; 8
   0118 2A                  266 	.db #0x2a	; 42
   0119 1C                  267 	.db #0x1c	; 28
   011A 2A                  268 	.db #0x2a	; 42
   011B 08                  269 	.db #0x08	; 8
   011C 00                  270 	.db #0x00	; 0
   011D 00                  271 	.db #0x00	; 0
   011E 00                  272 	.db #0x00	; 0
   011F 08                  273 	.db #0x08	; 8
   0120 08                  274 	.db #0x08	; 8
   0121 3E                  275 	.db #0x3e	; 62
   0122 08                  276 	.db #0x08	; 8
   0123 08                  277 	.db #0x08	; 8
   0124 00                  278 	.db #0x00	; 0
   0125 00                  279 	.db #0x00	; 0
   0126 00                  280 	.db #0x00	; 0
   0127 A0                  281 	.db #0xa0	; 160
   0128 60                  282 	.db #0x60	; 96
   0129 00                  283 	.db #0x00	; 0
   012A 00                  284 	.db #0x00	; 0
   012B 00                  285 	.db #0x00	; 0
   012C 00                  286 	.db #0x00	; 0
   012D 00                  287 	.db #0x00	; 0
   012E 00                  288 	.db #0x00	; 0
   012F 08                  289 	.db #0x08	; 8
   0130 08                  290 	.db #0x08	; 8
   0131 08                  291 	.db #0x08	; 8
   0132 08                  292 	.db #0x08	; 8
   0133 08                  293 	.db #0x08	; 8
   0134 00                  294 	.db #0x00	; 0
   0135 00                  295 	.db #0x00	; 0
   0136 00                  296 	.db #0x00	; 0
   0137 60                  297 	.db #0x60	; 96
   0138 60                  298 	.db #0x60	; 96
   0139 00                  299 	.db #0x00	; 0
   013A 00                  300 	.db #0x00	; 0
   013B 00                  301 	.db #0x00	; 0
   013C 00                  302 	.db #0x00	; 0
   013D 00                  303 	.db #0x00	; 0
   013E 00                  304 	.db #0x00	; 0
   013F 20                  305 	.db #0x20	; 32
   0140 10                  306 	.db #0x10	; 16
   0141 08                  307 	.db #0x08	; 8
   0142 04                  308 	.db #0x04	; 4
   0143 02                  309 	.db #0x02	; 2
   0144 00                  310 	.db #0x00	; 0
   0145 00                  311 	.db #0x00	; 0
   0146 00                  312 	.db #0x00	; 0
   0147 3E                  313 	.db #0x3e	; 62
   0148 51                  314 	.db #0x51	; 81	'Q'
   0149 49                  315 	.db #0x49	; 73	'I'
   014A 45                  316 	.db #0x45	; 69	'E'
   014B 3E                  317 	.db #0x3e	; 62
   014C 00                  318 	.db #0x00	; 0
   014D 00                  319 	.db #0x00	; 0
   014E 00                  320 	.db #0x00	; 0
   014F 00                  321 	.db #0x00	; 0
   0150 42                  322 	.db #0x42	; 66	'B'
   0151 7F                  323 	.db #0x7f	; 127
   0152 40                  324 	.db #0x40	; 64
   0153 00                  325 	.db #0x00	; 0
   0154 00                  326 	.db #0x00	; 0
   0155 00                  327 	.db #0x00	; 0
   0156 00                  328 	.db #0x00	; 0
   0157 62                  329 	.db #0x62	; 98	'b'
   0158 51                  330 	.db #0x51	; 81	'Q'
   0159 49                  331 	.db #0x49	; 73	'I'
   015A 49                  332 	.db #0x49	; 73	'I'
   015B 46                  333 	.db #0x46	; 70	'F'
   015C 00                  334 	.db #0x00	; 0
   015D 00                  335 	.db #0x00	; 0
   015E 00                  336 	.db #0x00	; 0
   015F 22                  337 	.db #0x22	; 34
   0160 41                  338 	.db #0x41	; 65	'A'
   0161 49                  339 	.db #0x49	; 73	'I'
   0162 49                  340 	.db #0x49	; 73	'I'
   0163 36                  341 	.db #0x36	; 54	'6'
   0164 00                  342 	.db #0x00	; 0
   0165 00                  343 	.db #0x00	; 0
   0166 00                  344 	.db #0x00	; 0
   0167 18                  345 	.db #0x18	; 24
   0168 14                  346 	.db #0x14	; 20
   0169 12                  347 	.db #0x12	; 18
   016A 7F                  348 	.db #0x7f	; 127
   016B 10                  349 	.db #0x10	; 16
   016C 00                  350 	.db #0x00	; 0
   016D 00                  351 	.db #0x00	; 0
   016E 00                  352 	.db #0x00	; 0
   016F 27                  353 	.db #0x27	; 39
   0170 45                  354 	.db #0x45	; 69	'E'
   0171 45                  355 	.db #0x45	; 69	'E'
   0172 45                  356 	.db #0x45	; 69	'E'
   0173 39                  357 	.db #0x39	; 57	'9'
   0174 00                  358 	.db #0x00	; 0
   0175 00                  359 	.db #0x00	; 0
   0176 00                  360 	.db #0x00	; 0
   0177 3C                  361 	.db #0x3c	; 60
   0178 4A                  362 	.db #0x4a	; 74	'J'
   0179 49                  363 	.db #0x49	; 73	'I'
   017A 49                  364 	.db #0x49	; 73	'I'
   017B 30                  365 	.db #0x30	; 48	'0'
   017C 00                  366 	.db #0x00	; 0
   017D 00                  367 	.db #0x00	; 0
   017E 00                  368 	.db #0x00	; 0
   017F 01                  369 	.db #0x01	; 1
   0180 71                  370 	.db #0x71	; 113	'q'
   0181 09                  371 	.db #0x09	; 9
   0182 05                  372 	.db #0x05	; 5
   0183 03                  373 	.db #0x03	; 3
   0184 00                  374 	.db #0x00	; 0
   0185 00                  375 	.db #0x00	; 0
   0186 00                  376 	.db #0x00	; 0
   0187 36                  377 	.db #0x36	; 54	'6'
   0188 49                  378 	.db #0x49	; 73	'I'
   0189 49                  379 	.db #0x49	; 73	'I'
   018A 49                  380 	.db #0x49	; 73	'I'
   018B 36                  381 	.db #0x36	; 54	'6'
   018C 00                  382 	.db #0x00	; 0
   018D 00                  383 	.db #0x00	; 0
   018E 00                  384 	.db #0x00	; 0
   018F 06                  385 	.db #0x06	; 6
   0190 49                  386 	.db #0x49	; 73	'I'
   0191 49                  387 	.db #0x49	; 73	'I'
   0192 29                  388 	.db #0x29	; 41
   0193 1E                  389 	.db #0x1e	; 30
   0194 00                  390 	.db #0x00	; 0
   0195 00                  391 	.db #0x00	; 0
   0196 00                  392 	.db #0x00	; 0
   0197 00                  393 	.db #0x00	; 0
   0198 36                  394 	.db #0x36	; 54	'6'
   0199 36                  395 	.db #0x36	; 54	'6'
   019A 00                  396 	.db #0x00	; 0
   019B 00                  397 	.db #0x00	; 0
   019C 00                  398 	.db #0x00	; 0
   019D 00                  399 	.db #0x00	; 0
   019E 00                  400 	.db #0x00	; 0
   019F 00                  401 	.db #0x00	; 0
   01A0 AC                  402 	.db #0xac	; 172
   01A1 6C                  403 	.db #0x6c	; 108	'l'
   01A2 00                  404 	.db #0x00	; 0
   01A3 00                  405 	.db #0x00	; 0
   01A4 00                  406 	.db #0x00	; 0
   01A5 00                  407 	.db #0x00	; 0
   01A6 00                  408 	.db #0x00	; 0
   01A7 08                  409 	.db #0x08	; 8
   01A8 14                  410 	.db #0x14	; 20
   01A9 22                  411 	.db #0x22	; 34
   01AA 41                  412 	.db #0x41	; 65	'A'
   01AB 00                  413 	.db #0x00	; 0
   01AC 00                  414 	.db #0x00	; 0
   01AD 00                  415 	.db #0x00	; 0
   01AE 00                  416 	.db #0x00	; 0
   01AF 14                  417 	.db #0x14	; 20
   01B0 14                  418 	.db #0x14	; 20
   01B1 14                  419 	.db #0x14	; 20
   01B2 14                  420 	.db #0x14	; 20
   01B3 14                  421 	.db #0x14	; 20
   01B4 00                  422 	.db #0x00	; 0
   01B5 00                  423 	.db #0x00	; 0
   01B6 00                  424 	.db #0x00	; 0
   01B7 41                  425 	.db #0x41	; 65	'A'
   01B8 22                  426 	.db #0x22	; 34
   01B9 14                  427 	.db #0x14	; 20
   01BA 08                  428 	.db #0x08	; 8
   01BB 00                  429 	.db #0x00	; 0
   01BC 00                  430 	.db #0x00	; 0
   01BD 00                  431 	.db #0x00	; 0
   01BE 00                  432 	.db #0x00	; 0
   01BF 02                  433 	.db #0x02	; 2
   01C0 01                  434 	.db #0x01	; 1
   01C1 51                  435 	.db #0x51	; 81	'Q'
   01C2 09                  436 	.db #0x09	; 9
   01C3 06                  437 	.db #0x06	; 6
   01C4 00                  438 	.db #0x00	; 0
   01C5 00                  439 	.db #0x00	; 0
   01C6 00                  440 	.db #0x00	; 0
   01C7 32                  441 	.db #0x32	; 50	'2'
   01C8 49                  442 	.db #0x49	; 73	'I'
   01C9 79                  443 	.db #0x79	; 121	'y'
   01CA 41                  444 	.db #0x41	; 65	'A'
   01CB 3E                  445 	.db #0x3e	; 62
   01CC 00                  446 	.db #0x00	; 0
   01CD 00                  447 	.db #0x00	; 0
   01CE 00                  448 	.db #0x00	; 0
   01CF 7E                  449 	.db #0x7e	; 126
   01D0 09                  450 	.db #0x09	; 9
   01D1 09                  451 	.db #0x09	; 9
   01D2 09                  452 	.db #0x09	; 9
   01D3 7E                  453 	.db #0x7e	; 126
   01D4 00                  454 	.db #0x00	; 0
   01D5 00                  455 	.db #0x00	; 0
   01D6 00                  456 	.db #0x00	; 0
   01D7 7F                  457 	.db #0x7f	; 127
   01D8 49                  458 	.db #0x49	; 73	'I'
   01D9 49                  459 	.db #0x49	; 73	'I'
   01DA 49                  460 	.db #0x49	; 73	'I'
   01DB 36                  461 	.db #0x36	; 54	'6'
   01DC 00                  462 	.db #0x00	; 0
   01DD 00                  463 	.db #0x00	; 0
   01DE 00                  464 	.db #0x00	; 0
   01DF 3E                  465 	.db #0x3e	; 62
   01E0 41                  466 	.db #0x41	; 65	'A'
   01E1 41                  467 	.db #0x41	; 65	'A'
   01E2 41                  468 	.db #0x41	; 65	'A'
   01E3 22                  469 	.db #0x22	; 34
   01E4 00                  470 	.db #0x00	; 0
   01E5 00                  471 	.db #0x00	; 0
   01E6 00                  472 	.db #0x00	; 0
   01E7 7F                  473 	.db #0x7f	; 127
   01E8 41                  474 	.db #0x41	; 65	'A'
   01E9 41                  475 	.db #0x41	; 65	'A'
   01EA 22                  476 	.db #0x22	; 34
   01EB 1C                  477 	.db #0x1c	; 28
   01EC 00                  478 	.db #0x00	; 0
   01ED 00                  479 	.db #0x00	; 0
   01EE 00                  480 	.db #0x00	; 0
   01EF 7F                  481 	.db #0x7f	; 127
   01F0 49                  482 	.db #0x49	; 73	'I'
   01F1 49                  483 	.db #0x49	; 73	'I'
   01F2 49                  484 	.db #0x49	; 73	'I'
   01F3 41                  485 	.db #0x41	; 65	'A'
   01F4 00                  486 	.db #0x00	; 0
   01F5 00                  487 	.db #0x00	; 0
   01F6 00                  488 	.db #0x00	; 0
   01F7 7F                  489 	.db #0x7f	; 127
   01F8 09                  490 	.db #0x09	; 9
   01F9 09                  491 	.db #0x09	; 9
   01FA 09                  492 	.db #0x09	; 9
   01FB 01                  493 	.db #0x01	; 1
   01FC 00                  494 	.db #0x00	; 0
   01FD 00                  495 	.db #0x00	; 0
   01FE 00                  496 	.db #0x00	; 0
   01FF 3E                  497 	.db #0x3e	; 62
   0200 41                  498 	.db #0x41	; 65	'A'
   0201 41                  499 	.db #0x41	; 65	'A'
   0202 51                  500 	.db #0x51	; 81	'Q'
   0203 72                  501 	.db #0x72	; 114	'r'
   0204 00                  502 	.db #0x00	; 0
   0205 00                  503 	.db #0x00	; 0
   0206 00                  504 	.db #0x00	; 0
   0207 7F                  505 	.db #0x7f	; 127
   0208 08                  506 	.db #0x08	; 8
   0209 08                  507 	.db #0x08	; 8
   020A 08                  508 	.db #0x08	; 8
   020B 7F                  509 	.db #0x7f	; 127
   020C 00                  510 	.db #0x00	; 0
   020D 00                  511 	.db #0x00	; 0
   020E 00                  512 	.db #0x00	; 0
   020F 41                  513 	.db #0x41	; 65	'A'
   0210 7F                  514 	.db #0x7f	; 127
   0211 41                  515 	.db #0x41	; 65	'A'
   0212 00                  516 	.db #0x00	; 0
   0213 00                  517 	.db #0x00	; 0
   0214 00                  518 	.db #0x00	; 0
   0215 00                  519 	.db #0x00	; 0
   0216 00                  520 	.db #0x00	; 0
   0217 20                  521 	.db #0x20	; 32
   0218 40                  522 	.db #0x40	; 64
   0219 41                  523 	.db #0x41	; 65	'A'
   021A 3F                  524 	.db #0x3f	; 63
   021B 01                  525 	.db #0x01	; 1
   021C 00                  526 	.db #0x00	; 0
   021D 00                  527 	.db #0x00	; 0
   021E 00                  528 	.db #0x00	; 0
   021F 7F                  529 	.db #0x7f	; 127
   0220 08                  530 	.db #0x08	; 8
   0221 14                  531 	.db #0x14	; 20
   0222 22                  532 	.db #0x22	; 34
   0223 41                  533 	.db #0x41	; 65	'A'
   0224 00                  534 	.db #0x00	; 0
   0225 00                  535 	.db #0x00	; 0
   0226 00                  536 	.db #0x00	; 0
   0227 7F                  537 	.db #0x7f	; 127
   0228 40                  538 	.db #0x40	; 64
   0229 40                  539 	.db #0x40	; 64
   022A 40                  540 	.db #0x40	; 64
   022B 40                  541 	.db #0x40	; 64
   022C 00                  542 	.db #0x00	; 0
   022D 00                  543 	.db #0x00	; 0
   022E 00                  544 	.db #0x00	; 0
   022F 7F                  545 	.db #0x7f	; 127
   0230 02                  546 	.db #0x02	; 2
   0231 0C                  547 	.db #0x0c	; 12
   0232 02                  548 	.db #0x02	; 2
   0233 7F                  549 	.db #0x7f	; 127
   0234 00                  550 	.db #0x00	; 0
   0235 00                  551 	.db #0x00	; 0
   0236 00                  552 	.db #0x00	; 0
   0237 7F                  553 	.db #0x7f	; 127
   0238 04                  554 	.db #0x04	; 4
   0239 08                  555 	.db #0x08	; 8
   023A 10                  556 	.db #0x10	; 16
   023B 7F                  557 	.db #0x7f	; 127
   023C 00                  558 	.db #0x00	; 0
   023D 00                  559 	.db #0x00	; 0
   023E 00                  560 	.db #0x00	; 0
   023F 3E                  561 	.db #0x3e	; 62
   0240 41                  562 	.db #0x41	; 65	'A'
   0241 41                  563 	.db #0x41	; 65	'A'
   0242 41                  564 	.db #0x41	; 65	'A'
   0243 3E                  565 	.db #0x3e	; 62
   0244 00                  566 	.db #0x00	; 0
   0245 00                  567 	.db #0x00	; 0
   0246 00                  568 	.db #0x00	; 0
   0247 7F                  569 	.db #0x7f	; 127
   0248 09                  570 	.db #0x09	; 9
   0249 09                  571 	.db #0x09	; 9
   024A 09                  572 	.db #0x09	; 9
   024B 06                  573 	.db #0x06	; 6
   024C 00                  574 	.db #0x00	; 0
   024D 00                  575 	.db #0x00	; 0
   024E 00                  576 	.db #0x00	; 0
   024F 3E                  577 	.db #0x3e	; 62
   0250 41                  578 	.db #0x41	; 65	'A'
   0251 51                  579 	.db #0x51	; 81	'Q'
   0252 21                  580 	.db #0x21	; 33
   0253 5E                  581 	.db #0x5e	; 94
   0254 00                  582 	.db #0x00	; 0
   0255 00                  583 	.db #0x00	; 0
   0256 00                  584 	.db #0x00	; 0
   0257 7F                  585 	.db #0x7f	; 127
   0258 09                  586 	.db #0x09	; 9
   0259 19                  587 	.db #0x19	; 25
   025A 29                  588 	.db #0x29	; 41
   025B 46                  589 	.db #0x46	; 70	'F'
   025C 00                  590 	.db #0x00	; 0
   025D 00                  591 	.db #0x00	; 0
   025E 00                  592 	.db #0x00	; 0
   025F 26                  593 	.db #0x26	; 38
   0260 49                  594 	.db #0x49	; 73	'I'
   0261 49                  595 	.db #0x49	; 73	'I'
   0262 49                  596 	.db #0x49	; 73	'I'
   0263 32                  597 	.db #0x32	; 50	'2'
   0264 00                  598 	.db #0x00	; 0
   0265 00                  599 	.db #0x00	; 0
   0266 00                  600 	.db #0x00	; 0
   0267 01                  601 	.db #0x01	; 1
   0268 01                  602 	.db #0x01	; 1
   0269 7F                  603 	.db #0x7f	; 127
   026A 01                  604 	.db #0x01	; 1
   026B 01                  605 	.db #0x01	; 1
   026C 00                  606 	.db #0x00	; 0
   026D 00                  607 	.db #0x00	; 0
   026E 00                  608 	.db #0x00	; 0
   026F 3F                  609 	.db #0x3f	; 63
   0270 40                  610 	.db #0x40	; 64
   0271 40                  611 	.db #0x40	; 64
   0272 40                  612 	.db #0x40	; 64
   0273 3F                  613 	.db #0x3f	; 63
   0274 00                  614 	.db #0x00	; 0
   0275 00                  615 	.db #0x00	; 0
   0276 00                  616 	.db #0x00	; 0
   0277 1F                  617 	.db #0x1f	; 31
   0278 20                  618 	.db #0x20	; 32
   0279 40                  619 	.db #0x40	; 64
   027A 20                  620 	.db #0x20	; 32
   027B 1F                  621 	.db #0x1f	; 31
   027C 00                  622 	.db #0x00	; 0
   027D 00                  623 	.db #0x00	; 0
   027E 00                  624 	.db #0x00	; 0
   027F 3F                  625 	.db #0x3f	; 63
   0280 40                  626 	.db #0x40	; 64
   0281 38                  627 	.db #0x38	; 56	'8'
   0282 40                  628 	.db #0x40	; 64
   0283 3F                  629 	.db #0x3f	; 63
   0284 00                  630 	.db #0x00	; 0
   0285 00                  631 	.db #0x00	; 0
   0286 00                  632 	.db #0x00	; 0
   0287 63                  633 	.db #0x63	; 99	'c'
   0288 14                  634 	.db #0x14	; 20
   0289 08                  635 	.db #0x08	; 8
   028A 14                  636 	.db #0x14	; 20
   028B 63                  637 	.db #0x63	; 99	'c'
   028C 00                  638 	.db #0x00	; 0
   028D 00                  639 	.db #0x00	; 0
   028E 00                  640 	.db #0x00	; 0
   028F 03                  641 	.db #0x03	; 3
   0290 04                  642 	.db #0x04	; 4
   0291 78                  643 	.db #0x78	; 120	'x'
   0292 04                  644 	.db #0x04	; 4
   0293 03                  645 	.db #0x03	; 3
   0294 00                  646 	.db #0x00	; 0
   0295 00                  647 	.db #0x00	; 0
   0296 00                  648 	.db #0x00	; 0
   0297 61                  649 	.db #0x61	; 97	'a'
   0298 51                  650 	.db #0x51	; 81	'Q'
   0299 49                  651 	.db #0x49	; 73	'I'
   029A 45                  652 	.db #0x45	; 69	'E'
   029B 43                  653 	.db #0x43	; 67	'C'
   029C 00                  654 	.db #0x00	; 0
   029D 00                  655 	.db #0x00	; 0
   029E 00                  656 	.db #0x00	; 0
   029F 7F                  657 	.db #0x7f	; 127
   02A0 41                  658 	.db #0x41	; 65	'A'
   02A1 41                  659 	.db #0x41	; 65	'A'
   02A2 00                  660 	.db #0x00	; 0
   02A3 00                  661 	.db #0x00	; 0
   02A4 00                  662 	.db #0x00	; 0
   02A5 00                  663 	.db #0x00	; 0
   02A6 00                  664 	.db #0x00	; 0
   02A7 02                  665 	.db #0x02	; 2
   02A8 04                  666 	.db #0x04	; 4
   02A9 08                  667 	.db #0x08	; 8
   02AA 10                  668 	.db #0x10	; 16
   02AB 20                  669 	.db #0x20	; 32
   02AC 00                  670 	.db #0x00	; 0
   02AD 00                  671 	.db #0x00	; 0
   02AE 00                  672 	.db #0x00	; 0
   02AF 41                  673 	.db #0x41	; 65	'A'
   02B0 41                  674 	.db #0x41	; 65	'A'
   02B1 7F                  675 	.db #0x7f	; 127
   02B2 00                  676 	.db #0x00	; 0
   02B3 00                  677 	.db #0x00	; 0
   02B4 00                  678 	.db #0x00	; 0
   02B5 00                  679 	.db #0x00	; 0
   02B6 00                  680 	.db #0x00	; 0
   02B7 04                  681 	.db #0x04	; 4
   02B8 02                  682 	.db #0x02	; 2
   02B9 01                  683 	.db #0x01	; 1
   02BA 02                  684 	.db #0x02	; 2
   02BB 04                  685 	.db #0x04	; 4
   02BC 00                  686 	.db #0x00	; 0
   02BD 00                  687 	.db #0x00	; 0
   02BE 00                  688 	.db #0x00	; 0
   02BF 80                  689 	.db #0x80	; 128
   02C0 80                  690 	.db #0x80	; 128
   02C1 80                  691 	.db #0x80	; 128
   02C2 80                  692 	.db #0x80	; 128
   02C3 80                  693 	.db #0x80	; 128
   02C4 00                  694 	.db #0x00	; 0
   02C5 00                  695 	.db #0x00	; 0
   02C6 00                  696 	.db #0x00	; 0
   02C7 01                  697 	.db #0x01	; 1
   02C8 02                  698 	.db #0x02	; 2
   02C9 04                  699 	.db #0x04	; 4
   02CA 00                  700 	.db #0x00	; 0
   02CB 00                  701 	.db #0x00	; 0
   02CC 00                  702 	.db #0x00	; 0
   02CD 00                  703 	.db #0x00	; 0
   02CE 00                  704 	.db #0x00	; 0
   02CF 20                  705 	.db #0x20	; 32
   02D0 54                  706 	.db #0x54	; 84	'T'
   02D1 54                  707 	.db #0x54	; 84	'T'
   02D2 54                  708 	.db #0x54	; 84	'T'
   02D3 78                  709 	.db #0x78	; 120	'x'
   02D4 00                  710 	.db #0x00	; 0
   02D5 00                  711 	.db #0x00	; 0
   02D6 00                  712 	.db #0x00	; 0
   02D7 7F                  713 	.db #0x7f	; 127
   02D8 48                  714 	.db #0x48	; 72	'H'
   02D9 44                  715 	.db #0x44	; 68	'D'
   02DA 44                  716 	.db #0x44	; 68	'D'
   02DB 38                  717 	.db #0x38	; 56	'8'
   02DC 00                  718 	.db #0x00	; 0
   02DD 00                  719 	.db #0x00	; 0
   02DE 00                  720 	.db #0x00	; 0
   02DF 38                  721 	.db #0x38	; 56	'8'
   02E0 44                  722 	.db #0x44	; 68	'D'
   02E1 44                  723 	.db #0x44	; 68	'D'
   02E2 28                  724 	.db #0x28	; 40
   02E3 00                  725 	.db #0x00	; 0
   02E4 00                  726 	.db #0x00	; 0
   02E5 00                  727 	.db #0x00	; 0
   02E6 00                  728 	.db #0x00	; 0
   02E7 38                  729 	.db #0x38	; 56	'8'
   02E8 44                  730 	.db #0x44	; 68	'D'
   02E9 44                  731 	.db #0x44	; 68	'D'
   02EA 48                  732 	.db #0x48	; 72	'H'
   02EB 7F                  733 	.db #0x7f	; 127
   02EC 00                  734 	.db #0x00	; 0
   02ED 00                  735 	.db #0x00	; 0
   02EE 00                  736 	.db #0x00	; 0
   02EF 38                  737 	.db #0x38	; 56	'8'
   02F0 54                  738 	.db #0x54	; 84	'T'
   02F1 54                  739 	.db #0x54	; 84	'T'
   02F2 54                  740 	.db #0x54	; 84	'T'
   02F3 18                  741 	.db #0x18	; 24
   02F4 00                  742 	.db #0x00	; 0
   02F5 00                  743 	.db #0x00	; 0
   02F6 00                  744 	.db #0x00	; 0
   02F7 08                  745 	.db #0x08	; 8
   02F8 7E                  746 	.db #0x7e	; 126
   02F9 09                  747 	.db #0x09	; 9
   02FA 02                  748 	.db #0x02	; 2
   02FB 00                  749 	.db #0x00	; 0
   02FC 00                  750 	.db #0x00	; 0
   02FD 00                  751 	.db #0x00	; 0
   02FE 00                  752 	.db #0x00	; 0
   02FF 18                  753 	.db #0x18	; 24
   0300 A4                  754 	.db #0xa4	; 164
   0301 A4                  755 	.db #0xa4	; 164
   0302 A4                  756 	.db #0xa4	; 164
   0303 7C                  757 	.db #0x7c	; 124
   0304 00                  758 	.db #0x00	; 0
   0305 00                  759 	.db #0x00	; 0
   0306 00                  760 	.db #0x00	; 0
   0307 7F                  761 	.db #0x7f	; 127
   0308 08                  762 	.db #0x08	; 8
   0309 04                  763 	.db #0x04	; 4
   030A 04                  764 	.db #0x04	; 4
   030B 78                  765 	.db #0x78	; 120	'x'
   030C 00                  766 	.db #0x00	; 0
   030D 00                  767 	.db #0x00	; 0
   030E 00                  768 	.db #0x00	; 0
   030F 00                  769 	.db #0x00	; 0
   0310 7D                  770 	.db #0x7d	; 125
   0311 00                  771 	.db #0x00	; 0
   0312 00                  772 	.db #0x00	; 0
   0313 00                  773 	.db #0x00	; 0
   0314 00                  774 	.db #0x00	; 0
   0315 00                  775 	.db #0x00	; 0
   0316 00                  776 	.db #0x00	; 0
   0317 80                  777 	.db #0x80	; 128
   0318 84                  778 	.db #0x84	; 132
   0319 7D                  779 	.db #0x7d	; 125
   031A 00                  780 	.db #0x00	; 0
   031B 00                  781 	.db #0x00	; 0
   031C 00                  782 	.db #0x00	; 0
   031D 00                  783 	.db #0x00	; 0
   031E 00                  784 	.db #0x00	; 0
   031F 7F                  785 	.db #0x7f	; 127
   0320 10                  786 	.db #0x10	; 16
   0321 28                  787 	.db #0x28	; 40
   0322 44                  788 	.db #0x44	; 68	'D'
   0323 00                  789 	.db #0x00	; 0
   0324 00                  790 	.db #0x00	; 0
   0325 00                  791 	.db #0x00	; 0
   0326 00                  792 	.db #0x00	; 0
   0327 41                  793 	.db #0x41	; 65	'A'
   0328 7F                  794 	.db #0x7f	; 127
   0329 40                  795 	.db #0x40	; 64
   032A 00                  796 	.db #0x00	; 0
   032B 00                  797 	.db #0x00	; 0
   032C 00                  798 	.db #0x00	; 0
   032D 00                  799 	.db #0x00	; 0
   032E 00                  800 	.db #0x00	; 0
   032F 7C                  801 	.db #0x7c	; 124
   0330 04                  802 	.db #0x04	; 4
   0331 18                  803 	.db #0x18	; 24
   0332 04                  804 	.db #0x04	; 4
   0333 78                  805 	.db #0x78	; 120	'x'
   0334 00                  806 	.db #0x00	; 0
   0335 00                  807 	.db #0x00	; 0
   0336 00                  808 	.db #0x00	; 0
   0337 7C                  809 	.db #0x7c	; 124
   0338 08                  810 	.db #0x08	; 8
   0339 04                  811 	.db #0x04	; 4
   033A 7C                  812 	.db #0x7c	; 124
   033B 00                  813 	.db #0x00	; 0
   033C 00                  814 	.db #0x00	; 0
   033D 00                  815 	.db #0x00	; 0
   033E 00                  816 	.db #0x00	; 0
   033F 38                  817 	.db #0x38	; 56	'8'
   0340 44                  818 	.db #0x44	; 68	'D'
   0341 44                  819 	.db #0x44	; 68	'D'
   0342 38                  820 	.db #0x38	; 56	'8'
   0343 00                  821 	.db #0x00	; 0
   0344 00                  822 	.db #0x00	; 0
   0345 00                  823 	.db #0x00	; 0
   0346 00                  824 	.db #0x00	; 0
   0347 FC                  825 	.db #0xfc	; 252
   0348 24                  826 	.db #0x24	; 36
   0349 24                  827 	.db #0x24	; 36
   034A 18                  828 	.db #0x18	; 24
   034B 00                  829 	.db #0x00	; 0
   034C 00                  830 	.db #0x00	; 0
   034D 00                  831 	.db #0x00	; 0
   034E 00                  832 	.db #0x00	; 0
   034F 18                  833 	.db #0x18	; 24
   0350 24                  834 	.db #0x24	; 36
   0351 24                  835 	.db #0x24	; 36
   0352 FC                  836 	.db #0xfc	; 252
   0353 00                  837 	.db #0x00	; 0
   0354 00                  838 	.db #0x00	; 0
   0355 00                  839 	.db #0x00	; 0
   0356 00                  840 	.db #0x00	; 0
   0357 00                  841 	.db #0x00	; 0
   0358 7C                  842 	.db #0x7c	; 124
   0359 08                  843 	.db #0x08	; 8
   035A 04                  844 	.db #0x04	; 4
   035B 00                  845 	.db #0x00	; 0
   035C 00                  846 	.db #0x00	; 0
   035D 00                  847 	.db #0x00	; 0
   035E 00                  848 	.db #0x00	; 0
   035F 48                  849 	.db #0x48	; 72	'H'
   0360 54                  850 	.db #0x54	; 84	'T'
   0361 54                  851 	.db #0x54	; 84	'T'
   0362 24                  852 	.db #0x24	; 36
   0363 00                  853 	.db #0x00	; 0
   0364 00                  854 	.db #0x00	; 0
   0365 00                  855 	.db #0x00	; 0
   0366 00                  856 	.db #0x00	; 0
   0367 04                  857 	.db #0x04	; 4
   0368 7F                  858 	.db #0x7f	; 127
   0369 44                  859 	.db #0x44	; 68	'D'
   036A 00                  860 	.db #0x00	; 0
   036B 00                  861 	.db #0x00	; 0
   036C 00                  862 	.db #0x00	; 0
   036D 00                  863 	.db #0x00	; 0
   036E 00                  864 	.db #0x00	; 0
   036F 3C                  865 	.db #0x3c	; 60
   0370 40                  866 	.db #0x40	; 64
   0371 40                  867 	.db #0x40	; 64
   0372 7C                  868 	.db #0x7c	; 124
   0373 00                  869 	.db #0x00	; 0
   0374 00                  870 	.db #0x00	; 0
   0375 00                  871 	.db #0x00	; 0
   0376 00                  872 	.db #0x00	; 0
   0377 1C                  873 	.db #0x1c	; 28
   0378 20                  874 	.db #0x20	; 32
   0379 40                  875 	.db #0x40	; 64
   037A 20                  876 	.db #0x20	; 32
   037B 1C                  877 	.db #0x1c	; 28
   037C 00                  878 	.db #0x00	; 0
   037D 00                  879 	.db #0x00	; 0
   037E 00                  880 	.db #0x00	; 0
   037F 3C                  881 	.db #0x3c	; 60
   0380 40                  882 	.db #0x40	; 64
   0381 30                  883 	.db #0x30	; 48	'0'
   0382 40                  884 	.db #0x40	; 64
   0383 3C                  885 	.db #0x3c	; 60
   0384 00                  886 	.db #0x00	; 0
   0385 00                  887 	.db #0x00	; 0
   0386 00                  888 	.db #0x00	; 0
   0387 44                  889 	.db #0x44	; 68	'D'
   0388 28                  890 	.db #0x28	; 40
   0389 10                  891 	.db #0x10	; 16
   038A 28                  892 	.db #0x28	; 40
   038B 44                  893 	.db #0x44	; 68	'D'
   038C 00                  894 	.db #0x00	; 0
   038D 00                  895 	.db #0x00	; 0
   038E 00                  896 	.db #0x00	; 0
   038F 1C                  897 	.db #0x1c	; 28
   0390 A0                  898 	.db #0xa0	; 160
   0391 A0                  899 	.db #0xa0	; 160
   0392 7C                  900 	.db #0x7c	; 124
   0393 00                  901 	.db #0x00	; 0
   0394 00                  902 	.db #0x00	; 0
   0395 00                  903 	.db #0x00	; 0
   0396 00                  904 	.db #0x00	; 0
   0397 44                  905 	.db #0x44	; 68	'D'
   0398 64                  906 	.db #0x64	; 100	'd'
   0399 54                  907 	.db #0x54	; 84	'T'
   039A 4C                  908 	.db #0x4c	; 76	'L'
   039B 44                  909 	.db #0x44	; 68	'D'
   039C 00                  910 	.db #0x00	; 0
   039D 00                  911 	.db #0x00	; 0
   039E 00                  912 	.db #0x00	; 0
   039F 08                  913 	.db #0x08	; 8
   03A0 36                  914 	.db #0x36	; 54	'6'
   03A1 41                  915 	.db #0x41	; 65	'A'
   03A2 00                  916 	.db #0x00	; 0
   03A3 00                  917 	.db #0x00	; 0
   03A4 00                  918 	.db #0x00	; 0
   03A5 00                  919 	.db #0x00	; 0
   03A6 00                  920 	.db #0x00	; 0
   03A7 00                  921 	.db #0x00	; 0
   03A8 7F                  922 	.db #0x7f	; 127
   03A9 00                  923 	.db #0x00	; 0
   03AA 00                  924 	.db #0x00	; 0
   03AB 00                  925 	.db #0x00	; 0
   03AC 00                  926 	.db #0x00	; 0
   03AD 00                  927 	.db #0x00	; 0
   03AE 00                  928 	.db #0x00	; 0
   03AF 41                  929 	.db #0x41	; 65	'A'
   03B0 36                  930 	.db #0x36	; 54	'6'
   03B1 08                  931 	.db #0x08	; 8
   03B2 00                  932 	.db #0x00	; 0
   03B3 00                  933 	.db #0x00	; 0
   03B4 00                  934 	.db #0x00	; 0
   03B5 00                  935 	.db #0x00	; 0
   03B6 00                  936 	.db #0x00	; 0
   03B7 02                  937 	.db #0x02	; 2
   03B8 01                  938 	.db #0x01	; 1
   03B9 01                  939 	.db #0x01	; 1
   03BA 02                  940 	.db #0x02	; 2
   03BB 01                  941 	.db #0x01	; 1
   03BC 00                  942 	.db #0x00	; 0
   03BD 00                  943 	.db #0x00	; 0
   03BE 00                  944 	.db #0x00	; 0
   03BF 02                  945 	.db #0x02	; 2
   03C0 05                  946 	.db #0x05	; 5
   03C1 05                  947 	.db #0x05	; 5
   03C2 02                  948 	.db #0x02	; 2
   03C3 00                  949 	.db #0x00	; 0
   03C4 00                  950 	.db #0x00	; 0
   03C5 00                  951 	.db #0x00	; 0
                            952 ;ssd1306/ssd1306.c:183: void ssd1306_addr(uint8_t c, uint8_t p)
                            953 ;	---------------------------------
                            954 ; Function ssd1306_addr
                            955 ; ---------------------------------
   03C6                     956 _ssd1306_addr::
   03C6 F5            [11]  957 	push	af
   03C7 F5            [11]  958 	push	af
   03C8 F5            [11]  959 	push	af
   03C9 3B            [ 6]  960 	dec	sp
                            961 ;ssd1306/ssd1306.c:185: uint8_t command[] = {
   03CA 21 00 00      [10]  962 	ld	hl, #0x0000
   03CD 39            [11]  963 	add	hl, sp
   03CE EB            [ 4]  964 	ex	de, hl
   03CF AF            [ 4]  965 	xor	a, a
   03D0 12            [ 7]  966 	ld	(de), a
   03D1 6B            [ 4]  967 	ld	l, e
   03D2 62            [ 4]  968 	ld	h, d
   03D3 23            [ 6]  969 	inc	hl
   03D4 36 21         [10]  970 	ld	(hl), #0x21
   03D6 4B            [ 4]  971 	ld	c, e
   03D7 42            [ 4]  972 	ld	b, d
   03D8 03            [ 6]  973 	inc	bc
   03D9 03            [ 6]  974 	inc	bc
   03DA 21 09 00      [10]  975 	ld	hl, #9+0
   03DD 39            [11]  976 	add	hl, sp
   03DE 7E            [ 7]  977 	ld	a, (hl)
   03DF 02            [ 7]  978 	ld	(bc), a
   03E0 6B            [ 4]  979 	ld	l, e
   03E1 62            [ 4]  980 	ld	h, d
   03E2 23            [ 6]  981 	inc	hl
   03E3 23            [ 6]  982 	inc	hl
   03E4 23            [ 6]  983 	inc	hl
   03E5 36 7F         [10]  984 	ld	(hl), #0x7f
   03E7 21 04 00      [10]  985 	ld	hl, #0x0004
   03EA 19            [11]  986 	add	hl, de
   03EB 36 22         [10]  987 	ld	(hl), #0x22
   03ED 21 05 00      [10]  988 	ld	hl, #0x0005
   03F0 19            [11]  989 	add	hl, de
   03F1 FD 21 0A 00   [14]  990 	ld	iy, #10
   03F5 FD 39         [15]  991 	add	iy, sp
   03F7 FD 7E 00      [19]  992 	ld	a, 0 (iy)
   03FA 77            [ 7]  993 	ld	(hl), a
   03FB 21 06 00      [10]  994 	ld	hl, #0x0006
   03FE 19            [11]  995 	add	hl, de
   03FF 36 07         [10]  996 	ld	(hl), #0x07
                            997 ;ssd1306/ssd1306.c:190: i2c_write_buf(ssd1306_i2c_addr, command, sizeof(command));
   0401 21 07 00      [10]  998 	ld	hl, #0x0007
   0404 E5            [11]  999 	push	hl
   0405 D5            [11] 1000 	push	de
   0406 3Ar00r00      [13] 1001 	ld	a, (_ssd1306_i2c_addr)
   0409 F5            [11] 1002 	push	af
   040A 33            [ 6] 1003 	inc	sp
   040B CDr00r00      [17] 1004 	call	_i2c_write_buf
   040E F1            [10] 1005 	pop	af
   040F F1            [10] 1006 	pop	af
   0410 33            [ 6] 1007 	inc	sp
                           1008 ;ssd1306/ssd1306.c:191: }
   0411 F1            [10] 1009 	pop	af
   0412 F1            [10] 1010 	pop	af
   0413 F1            [10] 1011 	pop	af
   0414 33            [ 6] 1012 	inc	sp
   0415 C9            [10] 1013 	ret
                           1014 ;ssd1306/ssd1306.c:195: void SSD1306_FBPIXSET(uint8_t x, uint8_t y)
                           1015 ;	---------------------------------
                           1016 ; Function SSD1306_FBPIXSET
                           1017 ; ---------------------------------
   0416                    1018 _SSD1306_FBPIXSET::
   0416 CDr00r00      [17] 1019 	call	___sdcc_enter_ix
   0419 F5            [11] 1020 	push	af
   041A F5            [11] 1021 	push	af
   041B 3B            [ 6] 1022 	dec	sp
                           1023 ;ssd1306/ssd1306.c:197: ssd1306_fb[SSD1306_FBADDR(x,y)] |= (1 << (y % 8));
   041C DD 5E 05      [19] 1024 	ld	e, 5 (ix)
   041F 16 00         [ 7] 1025 	ld	d, #0x00
   0421 4B            [ 4] 1026 	ld	c, e
   0422 7A            [ 4] 1027 	ld	a,d
   0423 47            [ 4] 1028 	ld	b,a
   0424 07            [ 4] 1029 	rlca
   0425 E6 01         [ 7] 1030 	and	a,#0x01
   0427 DD 77 FD      [19] 1031 	ld	-3 (ix), a
   042A 21 07 00      [10] 1032 	ld	hl, #0x0007
   042D 19            [11] 1033 	add	hl, de
   042E E3            [19] 1034 	ex	(sp), hl
   042F DD 7E FD      [19] 1035 	ld	a, -3 (ix)
   0432 B7            [ 4] 1036 	or	a, a
   0433 28 02         [12] 1037 	jr	Z,00103$
   0435 C1            [10] 1038 	pop	bc
   0436 C5            [11] 1039 	push	bc
   0437                    1040 00103$:
   0437 69            [ 4] 1041 	ld	l, c
   0438 60            [ 4] 1042 	ld	h, b
   0439 06 03         [ 7] 1043 	ld	b, #0x03
   043B                    1044 00115$:
   043B CB 2C         [ 8] 1045 	sra	h
   043D CB 1D         [ 8] 1046 	rr	l
   043F 10 FA         [13] 1047 	djnz	00115$
   0441 29            [11] 1048 	add	hl, hl
   0442 29            [11] 1049 	add	hl, hl
   0443 29            [11] 1050 	add	hl, hl
   0444 29            [11] 1051 	add	hl, hl
   0445 29            [11] 1052 	add	hl, hl
   0446 29            [11] 1053 	add	hl, hl
   0447 29            [11] 1054 	add	hl, hl
   0448 DD 4E 04      [19] 1055 	ld	c, 4 (ix)
   044B 06 00         [ 7] 1056 	ld	b, #0x00
   044D 09            [11] 1057 	add	hl, bc
   044E DD 75 FE      [19] 1058 	ld	-2 (ix), l
   0451 DD 74 FF      [19] 1059 	ld	-1 (ix), h
   0454 FD 21r02r04   [14] 1060 	ld	iy, #_ssd1306_fb
   0458 FD 7E 00      [19] 1061 	ld	a, 0 (iy)
   045B DD 86 FE      [19] 1062 	add	a, -2 (ix)
   045E DD 77 FE      [19] 1063 	ld	-2 (ix), a
   0461 FD 7E 01      [19] 1064 	ld	a, 1 (iy)
   0464 DD 8E FF      [19] 1065 	adc	a, -1 (ix)
   0467 DD 77 FF      [19] 1066 	ld	-1 (ix), a
   046A 6B            [ 4] 1067 	ld	l, e
   046B 62            [ 4] 1068 	ld	h, d
   046C DD 7E FD      [19] 1069 	ld	a, -3 (ix)
   046F B7            [ 4] 1070 	or	a, a
   0470 28 02         [12] 1071 	jr	Z,00104$
   0472 E1            [10] 1072 	pop	hl
   0473 E5            [11] 1073 	push	hl
   0474                    1074 00104$:
   0474 3E 03         [ 7] 1075 	ld	a, #0x03
   0476                    1076 00116$:
   0476 CB 2C         [ 8] 1077 	sra	h
   0478 CB 1D         [ 8] 1078 	rr	l
   047A 3D            [ 4] 1079 	dec	a
   047B 20 F9         [12] 1080 	jr	NZ,00116$
   047D 29            [11] 1081 	add	hl, hl
   047E 29            [11] 1082 	add	hl, hl
   047F 29            [11] 1083 	add	hl, hl
   0480 29            [11] 1084 	add	hl, hl
   0481 29            [11] 1085 	add	hl, hl
   0482 29            [11] 1086 	add	hl, hl
   0483 29            [11] 1087 	add	hl, hl
   0484 09            [11] 1088 	add	hl, bc
   0485 4D            [ 4] 1089 	ld	c, l
   0486 44            [ 4] 1090 	ld	b, h
   0487 FD 2Ar02r04   [20] 1091 	ld	iy, (_ssd1306_fb)
   048B FD 09         [15] 1092 	add	iy, bc
   048D FD 46 00      [19] 1093 	ld	b, 0 (iy)
   0490 C5            [11] 1094 	push	bc
   0491 21 08 00      [10] 1095 	ld	hl, #0x0008
   0494 E5            [11] 1096 	push	hl
   0495 D5            [11] 1097 	push	de
   0496 CDr00r00      [17] 1098 	call	__modsint
   0499 F1            [10] 1099 	pop	af
   049A F1            [10] 1100 	pop	af
   049B C1            [10] 1101 	pop	bc
   049C 0E 01         [ 7] 1102 	ld	c, #0x01
   049E 2C            [ 4] 1103 	inc	l
   049F 18 02         [12] 1104 	jr	00118$
   04A1                    1105 00117$:
   04A1 CB 21         [ 8] 1106 	sla	c
   04A3                    1107 00118$:
   04A3 2D            [ 4] 1108 	dec	l
   04A4 20 FB         [12] 1109 	jr	NZ,00117$
   04A6 78            [ 4] 1110 	ld	a, b
   04A7 B1            [ 4] 1111 	or	a, c
   04A8 DD 6E FE      [19] 1112 	ld	l, -2 (ix)
   04AB DD 66 FF      [19] 1113 	ld	h, -1 (ix)
   04AE 77            [ 7] 1114 	ld	(hl), a
                           1115 ;ssd1306/ssd1306.c:198: }
   04AF DD F9         [10] 1116 	ld	sp, ix
   04B1 DD E1         [14] 1117 	pop	ix
   04B3 C9            [10] 1118 	ret
                           1119 ;ssd1306/ssd1306.c:202: void SSD1306_FBPIXCLR(uint8_t x, uint8_t y)
                           1120 ;	---------------------------------
                           1121 ; Function SSD1306_FBPIXCLR
                           1122 ; ---------------------------------
   04B4                    1123 _SSD1306_FBPIXCLR::
   04B4 CDr00r00      [17] 1124 	call	___sdcc_enter_ix
   04B7 F5            [11] 1125 	push	af
   04B8 F5            [11] 1126 	push	af
   04B9 3B            [ 6] 1127 	dec	sp
                           1128 ;ssd1306/ssd1306.c:204: ssd1306_fb[SSD1306_FBADDR(x,y)] &=~ (1 << (y % 8));
   04BA DD 5E 05      [19] 1129 	ld	e, 5 (ix)
   04BD 16 00         [ 7] 1130 	ld	d, #0x00
   04BF 4B            [ 4] 1131 	ld	c, e
   04C0 7A            [ 4] 1132 	ld	a,d
   04C1 47            [ 4] 1133 	ld	b,a
   04C2 07            [ 4] 1134 	rlca
   04C3 E6 01         [ 7] 1135 	and	a,#0x01
   04C5 DD 77 FF      [19] 1136 	ld	-1 (ix), a
   04C8 21 07 00      [10] 1137 	ld	hl, #0x0007
   04CB 19            [11] 1138 	add	hl, de
   04CC DD 75 FD      [19] 1139 	ld	-3 (ix), l
   04CF DD 74 FE      [19] 1140 	ld	-2 (ix), h
   04D2 DD 7E FF      [19] 1141 	ld	a, -1 (ix)
   04D5 B7            [ 4] 1142 	or	a, a
   04D6 28 06         [12] 1143 	jr	Z,00103$
   04D8 DD 4E FD      [19] 1144 	ld	c, -3 (ix)
   04DB DD 46 FE      [19] 1145 	ld	b, -2 (ix)
   04DE                    1146 00103$:
   04DE 69            [ 4] 1147 	ld	l, c
   04DF 60            [ 4] 1148 	ld	h, b
   04E0 06 03         [ 7] 1149 	ld	b, #0x03
   04E2                    1150 00115$:
   04E2 CB 2C         [ 8] 1151 	sra	h
   04E4 CB 1D         [ 8] 1152 	rr	l
   04E6 10 FA         [13] 1153 	djnz	00115$
   04E8 29            [11] 1154 	add	hl, hl
   04E9 29            [11] 1155 	add	hl, hl
   04EA 29            [11] 1156 	add	hl, hl
   04EB 29            [11] 1157 	add	hl, hl
   04EC 29            [11] 1158 	add	hl, hl
   04ED 29            [11] 1159 	add	hl, hl
   04EE 29            [11] 1160 	add	hl, hl
   04EF DD 4E 04      [19] 1161 	ld	c, 4 (ix)
   04F2 06 00         [ 7] 1162 	ld	b, #0x00
   04F4 09            [11] 1163 	add	hl, bc
   04F5 E3            [19] 1164 	ex	(sp), hl
   04F6 FD 21r02r04   [14] 1165 	ld	iy, #_ssd1306_fb
   04FA FD 7E 00      [19] 1166 	ld	a, 0 (iy)
   04FD DD 86 FB      [19] 1167 	add	a, -5 (ix)
   0500 DD 77 FB      [19] 1168 	ld	-5 (ix), a
   0503 FD 7E 01      [19] 1169 	ld	a, 1 (iy)
   0506 DD 8E FC      [19] 1170 	adc	a, -4 (ix)
   0509 DD 77 FC      [19] 1171 	ld	-4 (ix), a
   050C 6B            [ 4] 1172 	ld	l, e
   050D 62            [ 4] 1173 	ld	h, d
   050E DD 7E FF      [19] 1174 	ld	a, -1 (ix)
   0511 B7            [ 4] 1175 	or	a, a
   0512 28 06         [12] 1176 	jr	Z,00104$
   0514 DD 6E FD      [19] 1177 	ld	l, -3 (ix)
   0517 DD 66 FE      [19] 1178 	ld	h, -2 (ix)
   051A                    1179 00104$:
   051A 3E 03         [ 7] 1180 	ld	a, #0x03
   051C                    1181 00116$:
   051C CB 2C         [ 8] 1182 	sra	h
   051E CB 1D         [ 8] 1183 	rr	l
   0520 3D            [ 4] 1184 	dec	a
   0521 20 F9         [12] 1185 	jr	NZ,00116$
   0523 29            [11] 1186 	add	hl, hl
   0524 29            [11] 1187 	add	hl, hl
   0525 29            [11] 1188 	add	hl, hl
   0526 29            [11] 1189 	add	hl, hl
   0527 29            [11] 1190 	add	hl, hl
   0528 29            [11] 1191 	add	hl, hl
   0529 29            [11] 1192 	add	hl, hl
   052A 09            [11] 1193 	add	hl, bc
   052B 4D            [ 4] 1194 	ld	c, l
   052C 44            [ 4] 1195 	ld	b, h
   052D FD 2Ar02r04   [20] 1196 	ld	iy, (_ssd1306_fb)
   0531 FD 09         [15] 1197 	add	iy, bc
   0533 FD 4E 00      [19] 1198 	ld	c, 0 (iy)
   0536 C5            [11] 1199 	push	bc
   0537 21 08 00      [10] 1200 	ld	hl, #0x0008
   053A E5            [11] 1201 	push	hl
   053B D5            [11] 1202 	push	de
   053C CDr00r00      [17] 1203 	call	__modsint
   053F F1            [10] 1204 	pop	af
   0540 F1            [10] 1205 	pop	af
   0541 C1            [10] 1206 	pop	bc
   0542 06 01         [ 7] 1207 	ld	b, #0x01
   0544 2C            [ 4] 1208 	inc	l
   0545 18 02         [12] 1209 	jr	00118$
   0547                    1210 00117$:
   0547 CB 20         [ 8] 1211 	sla	b
   0549                    1212 00118$:
   0549 2D            [ 4] 1213 	dec	l
   054A 20 FB         [12] 1214 	jr	NZ,00117$
   054C 78            [ 4] 1215 	ld	a, b
   054D 2F            [ 4] 1216 	cpl
   054E A1            [ 4] 1217 	and	a, c
   054F E1            [10] 1218 	pop	hl
   0550 E5            [11] 1219 	push	hl
   0551 77            [ 7] 1220 	ld	(hl), a
                           1221 ;ssd1306/ssd1306.c:205: }
   0552 DD F9         [10] 1222 	ld	sp, ix
   0554 DD E1         [14] 1223 	pop	ix
   0556 C9            [10] 1224 	ret
                           1225 ;ssd1306/ssd1306.c:208: void ssd1306_clear()
                           1226 ;	---------------------------------
                           1227 ; Function ssd1306_clear
                           1228 ; ---------------------------------
   0557                    1229 _ssd1306_clear::
                           1230 ;ssd1306/ssd1306.c:210: memset(ssd1306_fb, 0, SSD1306_FBSIZE);
   0557 21 00 04      [10] 1231 	ld	hl, #0x0400
   055A E5            [11] 1232 	push	hl
   055B AF            [ 4] 1233 	xor	a, a
   055C F5            [11] 1234 	push	af
   055D 33            [ 6] 1235 	inc	sp
   055E 2Ar02r04      [16] 1236 	ld	hl, (_ssd1306_fb)
   0561 E5            [11] 1237 	push	hl
   0562 CDr00r00      [17] 1238 	call	_mini_memset
   0565 F1            [10] 1239 	pop	af
   0566 F1            [10] 1240 	pop	af
   0567 33            [ 6] 1241 	inc	sp
                           1242 ;ssd1306/ssd1306.c:211: }
   0568 C9            [10] 1243 	ret
                           1244 ;ssd1306/ssd1306.c:213: void ssd1306_update()
                           1245 ;	---------------------------------
                           1246 ; Function ssd1306_update
                           1247 ; ---------------------------------
   0569                    1248 _ssd1306_update::
                           1249 ;ssd1306/ssd1306.c:215: ssd1306_addr(0, 0);
   0569 AF            [ 4] 1250 	xor	a, a
   056A F5            [11] 1251 	push	af
   056B 33            [ 6] 1252 	inc	sp
   056C AF            [ 4] 1253 	xor	a, a
   056D F5            [11] 1254 	push	af
   056E 33            [ 6] 1255 	inc	sp
   056F CDrC6r03      [17] 1256 	call	_ssd1306_addr
                           1257 ;ssd1306/ssd1306.c:217: i2c_write_buf(ssd1306_i2c_addr, ssd1306_fbdata, sizeof(ssd1306_fbdata));
   0572 21 01 04      [10] 1258 	ld	hl, #0x0401
   0575 E3            [19] 1259 	ex	(sp),hl
   0576 21r01r00      [10] 1260 	ld	hl, #_ssd1306_fbdata
   0579 E5            [11] 1261 	push	hl
   057A 3Ar00r00      [13] 1262 	ld	a, (_ssd1306_i2c_addr)
   057D F5            [11] 1263 	push	af
   057E 33            [ 6] 1264 	inc	sp
   057F CDr00r00      [17] 1265 	call	_i2c_write_buf
   0582 F1            [10] 1266 	pop	af
   0583 F1            [10] 1267 	pop	af
   0584 33            [ 6] 1268 	inc	sp
                           1269 ;ssd1306/ssd1306.c:218: }
   0585 C9            [10] 1270 	ret
                           1271 ;ssd1306/ssd1306.c:220: void ssd1306_setPixel(int16_t x, int16_t y, uint8_t color)
                           1272 ;	---------------------------------
                           1273 ; Function ssd1306_setPixel
                           1274 ; ---------------------------------
   0586                    1275 _ssd1306_setPixel::
                           1276 ;ssd1306/ssd1306.c:224: SSD1306_FBPIXCLR(x,y);
   0586 21 04 00      [10] 1277 	ld	hl, #4+0
   0589 39            [11] 1278 	add	hl, sp
   058A 46            [ 7] 1279 	ld	b, (hl)
   058B 21 02 00      [10] 1280 	ld	hl, #2+0
   058E 39            [11] 1281 	add	hl, sp
   058F 56            [ 7] 1282 	ld	d, (hl)
                           1283 ;ssd1306/ssd1306.c:222: if(color == 0)
   0590 21 06 00      [10] 1284 	ld	hl, #6+0
   0593 39            [11] 1285 	add	hl, sp
   0594 7E            [ 7] 1286 	ld	a, (hl)
   0595 B7            [ 4] 1287 	or	a, a
   0596 20 07         [12] 1288 	jr	NZ,00102$
                           1289 ;ssd1306/ssd1306.c:224: SSD1306_FBPIXCLR(x,y);
   0598 4A            [ 4] 1290 	ld	c, d
   0599 C5            [11] 1291 	push	bc
   059A CDrB4r04      [17] 1292 	call	_SSD1306_FBPIXCLR
   059D F1            [10] 1293 	pop	af
   059E C9            [10] 1294 	ret
   059F                    1295 00102$:
                           1296 ;ssd1306/ssd1306.c:228: SSD1306_FBPIXSET(x,y);
   059F 4A            [ 4] 1297 	ld	c, d
   05A0 C5            [11] 1298 	push	bc
   05A1 CDr16r04      [17] 1299 	call	_SSD1306_FBPIXSET
   05A4 F1            [10] 1300 	pop	af
                           1301 ;ssd1306/ssd1306.c:230: }
   05A5 C9            [10] 1302 	ret
                           1303 ;ssd1306/ssd1306.c:232: void ssd1306_write(uint8_t row, uint8_t col, char *buf)
                           1304 ;	---------------------------------
                           1305 ; Function ssd1306_write
                           1306 ; ---------------------------------
   05A6                    1307 _ssd1306_write::
   05A6 CDr00r00      [17] 1308 	call	___sdcc_enter_ix
   05A9 F5            [11] 1309 	push	af
   05AA F5            [11] 1310 	push	af
                           1311 ;ssd1306/ssd1306.c:234: uint16_t i, len = strlen(buf);
   05AB DD 6E 06      [19] 1312 	ld	l, 6 (ix)
   05AE DD 66 07      [19] 1313 	ld	h, 7 (ix)
   05B1 E5            [11] 1314 	push	hl
   05B2 CDr00r00      [17] 1315 	call	_mini_strlen
   05B5 F1            [10] 1316 	pop	af
   05B6 DD 75 FE      [19] 1317 	ld	-2 (ix), l
   05B9 DD 74 FF      [19] 1318 	ld	-1 (ix), h
                           1319 ;ssd1306/ssd1306.c:236: uint8_t *data = &(ssd1306_fb[SSD1306_FBADDR(SSD1306_FONT_WIDTH*col,SSD1306_PAGES*row)]);
   05BC DD 6E 04      [19] 1320 	ld	l, 4 (ix)
   05BF 26 00         [ 7] 1321 	ld	h, #0x00
   05C1 29            [11] 1322 	add	hl, hl
   05C2 29            [11] 1323 	add	hl, hl
   05C3 29            [11] 1324 	add	hl, hl
   05C4 4D            [ 4] 1325 	ld	c,l
   05C5 44            [ 4] 1326 	ld	b,h
   05C6 CB 78         [ 8] 1327 	bit	7, b
   05C8 28 04         [12] 1328 	jr	Z,00110$
   05CA 21 07 00      [10] 1329 	ld	hl, #0x0007
   05CD 09            [11] 1330 	add	hl, bc
   05CE                    1331 00110$:
   05CE 06 03         [ 7] 1332 	ld	b, #0x03
   05D0                    1333 00138$:
   05D0 CB 2C         [ 8] 1334 	sra	h
   05D2 CB 1D         [ 8] 1335 	rr	l
   05D4 10 FA         [13] 1336 	djnz	00138$
   05D6 AF            [ 4] 1337 	xor	a, a
   05D7 CB 1C         [ 8] 1338 	rr	h
   05D9 45            [ 4] 1339 	ld	b, l
   05DA CB 18         [ 8] 1340 	rr	b
   05DC 1F            [ 4] 1341 	rra
   05DD 4F            [ 4] 1342 	ld	c, a
   05DE DD 6E 05      [19] 1343 	ld	l, 5 (ix)
   05E1 26 00         [ 7] 1344 	ld	h, #0x00
   05E3 29            [11] 1345 	add	hl, hl
   05E4 29            [11] 1346 	add	hl, hl
   05E5 29            [11] 1347 	add	hl, hl
   05E6 09            [11] 1348 	add	hl, bc
   05E7 EB            [ 4] 1349 	ex	de, hl
   05E8 2Ar02r04      [16] 1350 	ld	hl, (_ssd1306_fb)
   05EB 19            [11] 1351 	add	hl, de
   05EC 4D            [ 4] 1352 	ld	c, l
   05ED 44            [ 4] 1353 	ld	b, h
                           1354 ;ssd1306/ssd1306.c:238: for(i = 0; i < len; i++)
   05EE 11 00 00      [10] 1355 	ld	de, #0x0000
   05F1                    1356 00106$:
   05F1 7B            [ 4] 1357 	ld	a, e
   05F2 DD 96 FE      [19] 1358 	sub	a, -2 (ix)
   05F5 7A            [ 4] 1359 	ld	a, d
   05F6 DD 9E FF      [19] 1360 	sbc	a, -1 (ix)
   05F9 30 45         [12] 1361 	jr	NC,00108$
                           1362 ;ssd1306/ssd1306.c:240: for (p = 0; p < SSD1306_FONT_WIDTH; p++)
   05FB E5            [11] 1363 	push	hl
   05FC DD 6E 06      [19] 1364 	ld	l, 6 (ix)
   05FF DD 66 07      [19] 1365 	ld	h, 7 (ix)
   0602 E5            [11] 1366 	push	hl
   0603 FD E1         [14] 1367 	pop	iy
   0605 E1            [10] 1368 	pop	hl
   0606 FD 19         [15] 1369 	add	iy, de
   0608 DD 36 FD 00   [19] 1370 	ld	-3 (ix), #0x00
   060C                    1371 00103$:
                           1372 ;ssd1306/ssd1306.c:242: data[0] |= fontData[buf[i] - 0x20][p];
   060C 0A            [ 7] 1373 	ld	a, (bc)
   060D DD 77 FC      [19] 1374 	ld	-4 (ix), a
   0610 FD 7E 00      [19] 1375 	ld	a, 0 (iy)
   0613 26 00         [ 7] 1376 	ld	h, #0x00
   0615 C6 E0         [ 7] 1377 	add	a, #0xe0
   0617 6F            [ 4] 1378 	ld	l, a
   0618 7C            [ 4] 1379 	ld	a, h
   0619 CE FF         [ 7] 1380 	adc	a, #0xff
   061B 67            [ 4] 1381 	ld	h, a
   061C 29            [11] 1382 	add	hl, hl
   061D 29            [11] 1383 	add	hl, hl
   061E 29            [11] 1384 	add	hl, hl
   061F D5            [11] 1385 	push	de
   0620 11rC6r00      [10] 1386 	ld	de, #_fontData
   0623 19            [11] 1387 	add	hl, de
   0624 D1            [10] 1388 	pop	de
   0625 7D            [ 4] 1389 	ld	a, l
   0626 DD 86 FD      [19] 1390 	add	a, -3 (ix)
   0629 6F            [ 4] 1391 	ld	l, a
   062A 30 01         [12] 1392 	jr	NC,00139$
   062C 24            [ 4] 1393 	inc	h
   062D                    1394 00139$:
   062D 7E            [ 7] 1395 	ld	a, (hl)
   062E DD B6 FC      [19] 1396 	or	a, -4 (ix)
   0631 02            [ 7] 1397 	ld	(bc), a
                           1398 ;ssd1306/ssd1306.c:243: data++;
   0632 03            [ 6] 1399 	inc	bc
                           1400 ;ssd1306/ssd1306.c:240: for (p = 0; p < SSD1306_FONT_WIDTH; p++)
   0633 DD 34 FD      [23] 1401 	inc	-3 (ix)
   0636 DD 7E FD      [19] 1402 	ld	a, -3 (ix)
   0639 D6 08         [ 7] 1403 	sub	a, #0x08
   063B 38 CF         [12] 1404 	jr	C,00103$
                           1405 ;ssd1306/ssd1306.c:238: for(i = 0; i < len; i++)
   063D 13            [ 6] 1406 	inc	de
   063E 18 B1         [12] 1407 	jr	00106$
   0640                    1408 00108$:
                           1409 ;ssd1306/ssd1306.c:246: }
   0640 DD F9         [10] 1410 	ld	sp, ix
   0642 DD E1         [14] 1411 	pop	ix
   0644 C9            [10] 1412 	ret
                           1413 ;ssd1306/ssd1306.c:249: int16_t ssd1306_abs(int16_t x)
                           1414 ;	---------------------------------
                           1415 ; Function ssd1306_abs
                           1416 ; ---------------------------------
   0645                    1417 _ssd1306_abs::
                           1418 ;ssd1306/ssd1306.c:251: if( x < 0 )
   0645 21 03 00      [10] 1419 	ld	hl, #2+1
   0648 39            [11] 1420 	add	hl, sp
   0649 CB 7E         [12] 1421 	bit	7, (hl)
   064B 28 0F         [12] 1422 	jr	Z,00102$
                           1423 ;ssd1306/ssd1306.c:252: return -1 * x;
   064D 21 02 00      [10] 1424 	ld	hl, #2
   0650 39            [11] 1425 	add	hl, sp
   0651 AF            [ 4] 1426 	xor	a, a
   0652 96            [ 7] 1427 	sub	a, (hl)
   0653 4F            [ 4] 1428 	ld	c, a
   0654 3E 00         [ 7] 1429 	ld	a, #0x00
   0656 23            [ 6] 1430 	inc	hl
   0657 9E            [ 7] 1431 	sbc	a, (hl)
   0658 47            [ 4] 1432 	ld	b, a
   0659 69            [ 4] 1433 	ld	l, c
   065A 60            [ 4] 1434 	ld	h, b
   065B C9            [10] 1435 	ret
   065C                    1436 00102$:
                           1437 ;ssd1306/ssd1306.c:254: return x;
   065C C1            [10] 1438 	pop	bc
   065D E1            [10] 1439 	pop	hl
   065E E5            [11] 1440 	push	hl
   065F C5            [11] 1441 	push	bc
                           1442 ;ssd1306/ssd1306.c:255: }
   0660 C9            [10] 1443 	ret
                           1444 ;ssd1306/ssd1306.c:257: void ssd1306_line(int16_t x0, int16_t y0, int16_t x1, int16_t y1, uint8_t color)
                           1445 ;	---------------------------------
                           1446 ; Function ssd1306_line
                           1447 ; ---------------------------------
   0661                    1448 _ssd1306_line::
   0661 CDr00r00      [17] 1449 	call	___sdcc_enter_ix
   0664 F5            [11] 1450 	push	af
   0665 F5            [11] 1451 	push	af
   0666 F5            [11] 1452 	push	af
   0667 F5            [11] 1453 	push	af
                           1454 ;ssd1306/ssd1306.c:262: int16_t dx =  ssd1306_abs(x1 - x0);
   0668 DD 7E 08      [19] 1455 	ld	a, 8 (ix)
   066B DD 96 04      [19] 1456 	sub	a, 4 (ix)
   066E 4F            [ 4] 1457 	ld	c, a
   066F DD 7E 09      [19] 1458 	ld	a, 9 (ix)
   0672 DD 9E 05      [19] 1459 	sbc	a, 5 (ix)
   0675 47            [ 4] 1460 	ld	b, a
   0676 C5            [11] 1461 	push	bc
   0677 CDr45r06      [17] 1462 	call	_ssd1306_abs
   067A F1            [10] 1463 	pop	af
   067B DD 75 FE      [19] 1464 	ld	-2 (ix), l
   067E DD 74 FF      [19] 1465 	ld	-1 (ix), h
                           1466 ;ssd1306/ssd1306.c:263: int16_t sx = (x0 < x1) ? 1 : -1;
   0681 DD 7E 04      [19] 1467 	ld	a, 4 (ix)
   0684 DD 96 08      [19] 1468 	sub	a, 8 (ix)
   0687 DD 7E 05      [19] 1469 	ld	a, 5 (ix)
   068A DD 9E 09      [19] 1470 	sbc	a, 9 (ix)
   068D E2r92r06      [10] 1471 	jp	PO, 00155$
   0690 EE 80         [ 7] 1472 	xor	a, #0x80
   0692                    1473 00155$:
   0692 F2r9Ar06      [10] 1474 	jp	P, 00116$
   0695 01 01 00      [10] 1475 	ld	bc, #0x0001
   0698 18 03         [12] 1476 	jr	00117$
   069A                    1477 00116$:
   069A 01 FF FF      [10] 1478 	ld	bc, #0xffff
   069D                    1479 00117$:
   069D DD 71 FC      [19] 1480 	ld	-4 (ix), c
   06A0 DD 70 FD      [19] 1481 	ld	-3 (ix), b
                           1482 ;ssd1306/ssd1306.c:264: int16_t dy = -1 * ssd1306_abs(y1 - y0);
   06A3 DD 7E 0A      [19] 1483 	ld	a, 10 (ix)
   06A6 DD 96 06      [19] 1484 	sub	a, 6 (ix)
   06A9 4F            [ 4] 1485 	ld	c, a
   06AA DD 7E 0B      [19] 1486 	ld	a, 11 (ix)
   06AD DD 9E 07      [19] 1487 	sbc	a, 7 (ix)
   06B0 47            [ 4] 1488 	ld	b, a
   06B1 C5            [11] 1489 	push	bc
   06B2 CDr45r06      [17] 1490 	call	_ssd1306_abs
   06B5 F1            [10] 1491 	pop	af
   06B6 AF            [ 4] 1492 	xor	a, a
   06B7 95            [ 4] 1493 	sub	a, l
   06B8 4F            [ 4] 1494 	ld	c, a
   06B9 3E 00         [ 7] 1495 	ld	a, #0x00
   06BB 9C            [ 4] 1496 	sbc	a, h
   06BC 47            [ 4] 1497 	ld	b, a
   06BD DD 71 FA      [19] 1498 	ld	-6 (ix), c
   06C0 DD 70 FB      [19] 1499 	ld	-5 (ix), b
                           1500 ;ssd1306/ssd1306.c:265: int16_t sy = (y0 < y1) ? 1 : -1;
   06C3 DD 7E 06      [19] 1501 	ld	a, 6 (ix)
   06C6 DD 96 0A      [19] 1502 	sub	a, 10 (ix)
   06C9 DD 7E 07      [19] 1503 	ld	a, 7 (ix)
   06CC DD 9E 0B      [19] 1504 	sbc	a, 11 (ix)
   06CF E2rD4r06      [10] 1505 	jp	PO, 00156$
   06D2 EE 80         [ 7] 1506 	xor	a, #0x80
   06D4                    1507 00156$:
   06D4 F2rDCr06      [10] 1508 	jp	P, 00118$
   06D7 01 01 00      [10] 1509 	ld	bc, #0x0001
   06DA 18 03         [12] 1510 	jr	00119$
   06DC                    1511 00118$:
   06DC 01 FF FF      [10] 1512 	ld	bc, #0xffff
   06DF                    1513 00119$:
   06DF 33            [ 6] 1514 	inc	sp
   06E0 33            [ 6] 1515 	inc	sp
   06E1 C5            [11] 1516 	push	bc
                           1517 ;ssd1306/ssd1306.c:266: int16_t err = dx + dy;
   06E2 DD 7E FE      [19] 1518 	ld	a, -2 (ix)
   06E5 DD 86 FA      [19] 1519 	add	a, -6 (ix)
   06E8 4F            [ 4] 1520 	ld	c, a
   06E9 DD 7E FF      [19] 1521 	ld	a, -1 (ix)
   06EC DD 8E FB      [19] 1522 	adc	a, -5 (ix)
   06EF 47            [ 4] 1523 	ld	b, a
                           1524 ;ssd1306/ssd1306.c:269: while(1)
   06F0                    1525 00112$:
                           1526 ;ssd1306/ssd1306.c:273: SSD1306_FBPIXCLR(x0, y0);
   06F0 DD 5E 06      [19] 1527 	ld	e, 6 (ix)
   06F3 DD 56 04      [19] 1528 	ld	d, 4 (ix)
                           1529 ;ssd1306/ssd1306.c:271: if(color == 0)
   06F6 DD 7E 0C      [19] 1530 	ld	a, 12 (ix)
   06F9 B7            [ 4] 1531 	or	a, a
   06FA 20 0D         [12] 1532 	jr	NZ,00102$
                           1533 ;ssd1306/ssd1306.c:273: SSD1306_FBPIXCLR(x0, y0);
   06FC C5            [11] 1534 	push	bc
   06FD 7B            [ 4] 1535 	ld	a, e
   06FE F5            [11] 1536 	push	af
   06FF 33            [ 6] 1537 	inc	sp
   0700 D5            [11] 1538 	push	de
   0701 33            [ 6] 1539 	inc	sp
   0702 CDrB4r04      [17] 1540 	call	_SSD1306_FBPIXCLR
   0705 F1            [10] 1541 	pop	af
   0706 C1            [10] 1542 	pop	bc
   0707 18 0B         [12] 1543 	jr	00103$
   0709                    1544 00102$:
                           1545 ;ssd1306/ssd1306.c:277: SSD1306_FBPIXSET(x0, y0);
   0709 C5            [11] 1546 	push	bc
   070A 7B            [ 4] 1547 	ld	a, e
   070B F5            [11] 1548 	push	af
   070C 33            [ 6] 1549 	inc	sp
   070D D5            [11] 1550 	push	de
   070E 33            [ 6] 1551 	inc	sp
   070F CDr16r04      [17] 1552 	call	_SSD1306_FBPIXSET
   0712 F1            [10] 1553 	pop	af
   0713 C1            [10] 1554 	pop	bc
   0714                    1555 00103$:
                           1556 ;ssd1306/ssd1306.c:279: if ((x0 == x1) && (y0 == y1))
   0714 DD 7E 04      [19] 1557 	ld	a, 4 (ix)
   0717 DD 96 08      [19] 1558 	sub	a, 8 (ix)
   071A 20 18         [12] 1559 	jr	NZ,00105$
   071C DD 7E 05      [19] 1560 	ld	a, 5 (ix)
   071F DD 96 09      [19] 1561 	sub	a, 9 (ix)
   0722 20 10         [12] 1562 	jr	NZ,00105$
   0724 DD 7E 06      [19] 1563 	ld	a, 6 (ix)
   0727 DD 96 0A      [19] 1564 	sub	a, 10 (ix)
   072A 20 08         [12] 1565 	jr	NZ,00159$
   072C DD 7E 07      [19] 1566 	ld	a, 7 (ix)
   072F DD 96 0B      [19] 1567 	sub	a, 11 (ix)
   0732 28 5E         [12] 1568 	jr	Z,00114$
   0734                    1569 00159$:
                           1570 ;ssd1306/ssd1306.c:281: break;
   0734                    1571 00105$:
                           1572 ;ssd1306/ssd1306.c:283: e2 = 2 * err;
   0734 69            [ 4] 1573 	ld	l, c
   0735 60            [ 4] 1574 	ld	h, b
   0736 29            [11] 1575 	add	hl, hl
                           1576 ;ssd1306/ssd1306.c:284: if (e2 > dy)
   0737 DD 7E FA      [19] 1577 	ld	a, -6 (ix)
   073A 95            [ 4] 1578 	sub	a, l
   073B DD 7E FB      [19] 1579 	ld	a, -5 (ix)
   073E 9C            [ 4] 1580 	sbc	a, h
   073F E2r44r07      [10] 1581 	jp	PO, 00160$
   0742 EE 80         [ 7] 1582 	xor	a, #0x80
   0744                    1583 00160$:
   0744 F2r63r07      [10] 1584 	jp	P, 00108$
                           1585 ;ssd1306/ssd1306.c:286: err += dy;
   0747 79            [ 4] 1586 	ld	a, c
   0748 DD 86 FA      [19] 1587 	add	a, -6 (ix)
   074B 4F            [ 4] 1588 	ld	c, a
   074C 78            [ 4] 1589 	ld	a, b
   074D DD 8E FB      [19] 1590 	adc	a, -5 (ix)
   0750 47            [ 4] 1591 	ld	b, a
                           1592 ;ssd1306/ssd1306.c:287: x0 += sx;
   0751 DD 7E 04      [19] 1593 	ld	a, 4 (ix)
   0754 DD 86 FC      [19] 1594 	add	a, -4 (ix)
   0757 DD 77 04      [19] 1595 	ld	4 (ix), a
   075A DD 7E 05      [19] 1596 	ld	a, 5 (ix)
   075D DD 8E FD      [19] 1597 	adc	a, -3 (ix)
   0760 DD 77 05      [19] 1598 	ld	5 (ix), a
   0763                    1599 00108$:
                           1600 ;ssd1306/ssd1306.c:289: if (e2 < dx)
   0763 7D            [ 4] 1601 	ld	a, l
   0764 DD 96 FE      [19] 1602 	sub	a, -2 (ix)
   0767 7C            [ 4] 1603 	ld	a, h
   0768 DD 9E FF      [19] 1604 	sbc	a, -1 (ix)
   076B E2r70r07      [10] 1605 	jp	PO, 00161$
   076E EE 80         [ 7] 1606 	xor	a, #0x80
   0770                    1607 00161$:
   0770 F2rF0r06      [10] 1608 	jp	P, 00112$
                           1609 ;ssd1306/ssd1306.c:291: err += dx;
   0773 79            [ 4] 1610 	ld	a, c
   0774 DD 86 FE      [19] 1611 	add	a, -2 (ix)
   0777 4F            [ 4] 1612 	ld	c, a
   0778 78            [ 4] 1613 	ld	a, b
   0779 DD 8E FF      [19] 1614 	adc	a, -1 (ix)
   077C 47            [ 4] 1615 	ld	b, a
                           1616 ;ssd1306/ssd1306.c:292: y0 += sy;
   077D DD 7E 06      [19] 1617 	ld	a, 6 (ix)
   0780 DD 86 F8      [19] 1618 	add	a, -8 (ix)
   0783 DD 77 06      [19] 1619 	ld	6 (ix), a
   0786 DD 7E 07      [19] 1620 	ld	a, 7 (ix)
   0789 DD 8E F9      [19] 1621 	adc	a, -7 (ix)
   078C DD 77 07      [19] 1622 	ld	7 (ix), a
   078F C3rF0r06      [10] 1623 	jp	00112$
   0792                    1624 00114$:
                           1625 ;ssd1306/ssd1306.c:295: }
   0792 DD F9         [10] 1626 	ld	sp, ix
   0794 DD E1         [14] 1627 	pop	ix
   0796 C9            [10] 1628 	ret
                           1629 ;ssd1306/ssd1306.c:297: void ssd1306_box(int16_t x0, int16_t x1, int16_t y0, int16_t y1, uint8_t color)
                           1630 ;	---------------------------------
                           1631 ; Function ssd1306_box
                           1632 ; ---------------------------------
   0797                    1633 _ssd1306_box::
   0797 CDr00r00      [17] 1634 	call	___sdcc_enter_ix
                           1635 ;ssd1306/ssd1306.c:299: ssd1306_line(x0, y1, x1, y1, color);
   079A DD 7E 0C      [19] 1636 	ld	a, 12 (ix)
   079D F5            [11] 1637 	push	af
   079E 33            [ 6] 1638 	inc	sp
   079F DD 6E 0A      [19] 1639 	ld	l, 10 (ix)
   07A2 DD 66 0B      [19] 1640 	ld	h, 11 (ix)
   07A5 E5            [11] 1641 	push	hl
   07A6 DD 6E 06      [19] 1642 	ld	l, 6 (ix)
   07A9 DD 66 07      [19] 1643 	ld	h, 7 (ix)
   07AC E5            [11] 1644 	push	hl
   07AD DD 6E 0A      [19] 1645 	ld	l, 10 (ix)
   07B0 DD 66 0B      [19] 1646 	ld	h, 11 (ix)
   07B3 E5            [11] 1647 	push	hl
   07B4 DD 6E 04      [19] 1648 	ld	l, 4 (ix)
   07B7 DD 66 05      [19] 1649 	ld	h, 5 (ix)
   07BA E5            [11] 1650 	push	hl
   07BB CDr61r06      [17] 1651 	call	_ssd1306_line
   07BE 21 09 00      [10] 1652 	ld	hl, #9
   07C1 39            [11] 1653 	add	hl, sp
   07C2 F9            [ 6] 1654 	ld	sp, hl
                           1655 ;ssd1306/ssd1306.c:300: ssd1306_line(x1, y1, x1, y0, color);
   07C3 DD 7E 0C      [19] 1656 	ld	a, 12 (ix)
   07C6 F5            [11] 1657 	push	af
   07C7 33            [ 6] 1658 	inc	sp
   07C8 DD 6E 08      [19] 1659 	ld	l, 8 (ix)
   07CB DD 66 09      [19] 1660 	ld	h, 9 (ix)
   07CE E5            [11] 1661 	push	hl
   07CF DD 6E 06      [19] 1662 	ld	l, 6 (ix)
   07D2 DD 66 07      [19] 1663 	ld	h, 7 (ix)
   07D5 E5            [11] 1664 	push	hl
   07D6 DD 6E 0A      [19] 1665 	ld	l, 10 (ix)
   07D9 DD 66 0B      [19] 1666 	ld	h, 11 (ix)
   07DC E5            [11] 1667 	push	hl
   07DD DD 6E 06      [19] 1668 	ld	l, 6 (ix)
   07E0 DD 66 07      [19] 1669 	ld	h, 7 (ix)
   07E3 E5            [11] 1670 	push	hl
   07E4 CDr61r06      [17] 1671 	call	_ssd1306_line
   07E7 21 09 00      [10] 1672 	ld	hl, #9
   07EA 39            [11] 1673 	add	hl, sp
   07EB F9            [ 6] 1674 	ld	sp, hl
                           1675 ;ssd1306/ssd1306.c:301: ssd1306_line(x1, y0, x0, y0, color);
   07EC DD 7E 0C      [19] 1676 	ld	a, 12 (ix)
   07EF F5            [11] 1677 	push	af
   07F0 33            [ 6] 1678 	inc	sp
   07F1 DD 6E 08      [19] 1679 	ld	l, 8 (ix)
   07F4 DD 66 09      [19] 1680 	ld	h, 9 (ix)
   07F7 E5            [11] 1681 	push	hl
   07F8 DD 6E 04      [19] 1682 	ld	l, 4 (ix)
   07FB DD 66 05      [19] 1683 	ld	h, 5 (ix)
   07FE E5            [11] 1684 	push	hl
   07FF DD 6E 08      [19] 1685 	ld	l, 8 (ix)
   0802 DD 66 09      [19] 1686 	ld	h, 9 (ix)
   0805 E5            [11] 1687 	push	hl
   0806 DD 6E 06      [19] 1688 	ld	l, 6 (ix)
   0809 DD 66 07      [19] 1689 	ld	h, 7 (ix)
   080C E5            [11] 1690 	push	hl
   080D CDr61r06      [17] 1691 	call	_ssd1306_line
   0810 21 09 00      [10] 1692 	ld	hl, #9
   0813 39            [11] 1693 	add	hl, sp
   0814 F9            [ 6] 1694 	ld	sp, hl
                           1695 ;ssd1306/ssd1306.c:302: ssd1306_line(x0, y0, x0, y1, color);
   0815 DD 7E 0C      [19] 1696 	ld	a, 12 (ix)
   0818 F5            [11] 1697 	push	af
   0819 33            [ 6] 1698 	inc	sp
   081A DD 6E 0A      [19] 1699 	ld	l, 10 (ix)
   081D DD 66 0B      [19] 1700 	ld	h, 11 (ix)
   0820 E5            [11] 1701 	push	hl
   0821 DD 6E 04      [19] 1702 	ld	l, 4 (ix)
   0824 DD 66 05      [19] 1703 	ld	h, 5 (ix)
   0827 E5            [11] 1704 	push	hl
   0828 DD 6E 08      [19] 1705 	ld	l, 8 (ix)
   082B DD 66 09      [19] 1706 	ld	h, 9 (ix)
   082E E5            [11] 1707 	push	hl
   082F DD 6E 04      [19] 1708 	ld	l, 4 (ix)
   0832 DD 66 05      [19] 1709 	ld	h, 5 (ix)
   0835 E5            [11] 1710 	push	hl
   0836 CDr61r06      [17] 1711 	call	_ssd1306_line
   0839 21 09 00      [10] 1712 	ld	hl, #9
   083C 39            [11] 1713 	add	hl, sp
   083D F9            [ 6] 1714 	ld	sp, hl
                           1715 ;ssd1306/ssd1306.c:303: }
   083E DD E1         [14] 1716 	pop	ix
   0840 C9            [10] 1717 	ret
                           1718 	.area _CODE
                           1719 	.area _INITIALIZER
                           1720 	.area _CABS (ABS)
